target datalayout = "e-m:e-p270:32:32-p271:32:32-p272:64:64-i64:64-i128:128-f80:128-n8:16:32:64-S128"
target triple = "x86_64-pc-linux-gnu"

; Function Attrs: mustprogress uwtable
define dso_local void @_Z18maybeDumpMaskValue9UPropertyjjP8_IO_FILE(i32 noundef %0, i32 noundef %1, i32 noundef %2, ptr noundef %3) #5 {
  %5 = alloca i32, align 4
  %6 = alloca i32, align 4
  %7 = alloca i32, align 4
  %8 = alloca ptr, align 8
  store i32 %0, ptr %5, align 4, !tbaa !34
  store i32 %1, ptr %6, align 4, !tbaa !15
  store i32 %2, ptr %7, align 4, !tbaa !15
  store ptr %3, ptr %8, align 8, !tbaa !36
  %9 = load i32, ptr %6, align 4, !tbaa !15
  %10 = shl i32 1, %9
  %11 = load i32, ptr %7, align 4, !tbaa !15
  %12 = icmp ult i32 %10, %11
  br i1 %12, label %13, label %23

13:                                               ; preds = %4
  %14 = load i32, ptr %6, align 4, !tbaa !15
  %15 = add i32 %14, 1
  %16 = shl i32 1, %15
  %17 = load i32, ptr %7, align 4, !tbaa !15
  %18 = icmp ugt i32 %16, %17
  br i1 %18, label %19, label %23

19:                                               ; preds = %13
  %20 = load i32, ptr %5, align 4, !tbaa !34
  %21 = load i32, ptr %7, align 4, !tbaa !15
  %22 = load ptr, ptr %8, align 8, !tbaa !36
  call void @_Z14dumpValueEntry9UPropertyibP8_IO_FILE(i32 noundef %20, i32 noundef %21, i1 noundef zeroext true, ptr noundef %22)
  br label %23

23:                                               ; preds = %19, %13, %4
  ret void
}