; Function Attrs: mustprogress uwtable
define dso_local void @_Z18maybeDumpMaskValue9UPropertyjjP8_IO_FILE(i32 noundef %0, i32 noundef %1, i32 noundef %2, ptr noundef captures(none) %3) local_unnamed_addr #4 {
  %5 = shl nuw i32 1, %1
  %6 = icmp ult i32 %5, %2
  br i1 %6, label %7, label %11

7:                                                ; preds = %4
  %8 = add i32 %1, 1
  %.highbits = lshr i32 %2, %8
  %9 = icmp eq i32 %.highbits, 0
  br i1 %9, label %10, label %11

10:                                               ; preds = %7
  tail call void @_Z14dumpValueEntry9UPropertyibP8_IO_FILE(i32 noundef %0, i32 noundef %2, i1 noundef zeroext true, ptr noundef %3)
  br label %11

11:                                               ; preds = %10, %7, %4
  ret void
}